target datalayout = "e-m:e-p270:32:32-p271:32:32-p272:64:64-i64:64-i128:128-f80:128-n8:16:32:64-S128"
target triple = "x86_64-pc-linux-gnu"

@.str = private unnamed_addr constant [36 x i8] c"../openssl/crypto/pkcs7/pk7_smime.c\00", align 1
@__func__.PKCS7_final = private unnamed_addr constant [12 x i8] c"PKCS7_final\00", align 1

; Function Attrs: nounwind uwtable
define i32 @PKCS7_final(ptr noundef %0, ptr noundef %1, i32 noundef %2) #0 {
  %4 = alloca i32, align 4
  %5 = alloca ptr, align 8
  %6 = alloca ptr, align 8
  %7 = alloca i32, align 4
  %8 = alloca ptr, align 8
  %9 = alloca i32, align 4
  %10 = alloca i32, align 4
  store ptr %0, ptr %5, align 8, !tbaa !20
  store ptr %1, ptr %6, align 8, !tbaa !12
  store i32 %2, ptr %7, align 4, !tbaa !14
  call void @llvm.lifetime.start.p0(i64 8, ptr %8) #4
  call void @llvm.lifetime.start.p0(i64 4, ptr %9) #4
  store i32 0, ptr %9, align 4, !tbaa !14
  %11 = load ptr, ptr %5, align 8, !tbaa !20
  %12 = call ptr @PKCS7_dataInit(ptr noundef %11, ptr noundef null)
  store ptr %12, ptr %8, align 8, !tbaa !12
  %13 = icmp eq ptr %12, null
  br i1 %13, label %14, label %15

14:                                               ; preds = %3
  call void @ERR_new()
  call void @ERR_set_debug(ptr noundef @.str, i32 noundef 81, ptr noundef @__func__.PKCS7_final)
  call void (i32, i32, ptr, ...) @ERR_set_error(i32 noundef 33, i32 noundef 524321, ptr noundef null)
  store i32 0, ptr %4, align 4
  store i32 1, ptr %10, align 4
  br label %34

15:                                               ; preds = %3
  %16 = load ptr, ptr %6, align 8, !tbaa !12
  %17 = load ptr, ptr %8, align 8, !tbaa !12
  %18 = load i32, ptr %7, align 4, !tbaa !14
  %19 = call i32 @SMIME_crlf_copy(ptr noundef %16, ptr noundef %17, i32 noundef %18)
  %20 = icmp ne i32 %19, 0
  br i1 %20, label %22, label %21

21:                                               ; preds = %15
  br label %31

22:                                               ; preds = %15
  %23 = load ptr, ptr %8, align 8, !tbaa !12
  %24 = call i64 @BIO_ctrl(ptr noundef %23, i32 noundef 11, i64 noundef 0, ptr noundef null)
  %25 = load ptr, ptr %5, align 8, !tbaa !20
  %26 = load ptr, ptr %8, align 8, !tbaa !12
  %27 = call i32 @PKCS7_dataFinal(ptr noundef %25, ptr noundef %26)
  %28 = icmp ne i32 %27, 0
  br i1 %28, label %30, label %29

29:                                               ; preds = %22
  call void @ERR_new()
  call void @ERR_set_debug(ptr noundef @.str, i32 noundef 91, ptr noundef @__func__.PKCS7_final)
  call void (i32, i32, ptr, ...) @ERR_set_error(i32 noundef 33, i32 noundef 145, ptr noundef null)
  br label %31

30:                                               ; preds = %22
  store i32 1, ptr %9, align 4, !tbaa !14
  br label %31

31:                                               ; preds = %30, %29, %21
  %32 = load ptr, ptr %8, align 8, !tbaa !12
  call void @BIO_free_all(ptr noundef %32)
  %33 = load i32, ptr %9, align 4, !tbaa !14
  store i32 %33, ptr %4, align 4
  store i32 1, ptr %10, align 4
  br label %34

34:                                               ; preds = %31, %14
  call void @llvm.lifetime.end.p0(i64 4, ptr %9) #4
  call void @llvm.lifetime.end.p0(i64 8, ptr %8) #4
  %35 = load i32, ptr %4, align 4
  ret i32 %35
}