; Function Attrs: nounwind uwtable
define range(i32 0, 2) i32 @PKCS7_final(ptr noundef %0, ptr noundef %1, i32 noundef %2) local_unnamed_addr #0 {
  %4 = tail call ptr @PKCS7_dataInit(ptr noundef %0, ptr noundef null) #3
  %5 = icmp eq ptr %4, null
  br i1 %5, label %6, label %7

6:                                                ; preds = %3
  tail call void @ERR_new() #3
  tail call void @ERR_set_debug(ptr noundef nonnull @.str, i32 noundef 81, ptr noundef nonnull @__func__.PKCS7_final) #3
  tail call void (i32, i32, ptr, ...) @ERR_set_error(i32 noundef 33, i32 noundef 524321, ptr noundef null) #3
  br label %14

7:                                                ; preds = %3
  %8 = tail call i32 @SMIME_crlf_copy(ptr noundef %1, ptr noundef nonnull %4, i32 noundef %2) #3
  %.not = icmp eq i32 %8, 0
  br i1 %.not, label %13, label %9

9:                                                ; preds = %7
  %10 = tail call i64 @BIO_ctrl(ptr noundef nonnull %4, i32 noundef 11, i64 noundef 0, ptr noundef null) #3
  %11 = tail call i32 @PKCS7_dataFinal(ptr noundef %0, ptr noundef nonnull %4) #3
  %.not11 = icmp eq i32 %11, 0
  br i1 %.not11, label %12, label %13

12:                                               ; preds = %9
  tail call void @ERR_new() #3
  tail call void @ERR_set_debug(ptr noundef nonnull @.str, i32 noundef 91, ptr noundef nonnull @__func__.PKCS7_final) #3
  tail call void (i32, i32, ptr, ...) @ERR_set_error(i32 noundef 33, i32 noundef 145, ptr noundef null) #3
  br label %13

13:                                               ; preds = %9, %7, %12
  %.0 = phi i32 [ 0, %12 ], [ 0, %7 ], [ 1, %9 ]
  tail call void @BIO_free_all(ptr noundef nonnull %4) #3
  br label %14

14:                                               ; preds = %13, %6
  %.09 = phi i32 [ 0, %6 ], [ %.0, %13 ]
  ret i32 %.09
}